target datalayout = "e-m:e-p270:32:32-p271:32:32-p272:64:64-i64:64-f80:128-n8:16:32:64-S128"
target triple = "x86_64-pc-linux-gnu"

%struct.student = type { [20 x i8], i32, i32, i8, i8, i32, i32 }

@.str = private unnamed_addr constant [3 x i8] c"%d\00", align 1
@.str.1 = private unnamed_addr constant [18 x i8] c"%s %d %d %c %c %d\00", align 1
@.str.2 = private unnamed_addr constant [10 x i8] c"%s\0A%d\0A%d\0A\00", align 1

; Function Attrs: noinline nounwind uwtable
define dso_local void @main() #0 {
  %1 = alloca [100 x %struct.student], align 16
  %2 = alloca i32, align 4
  %3 = alloca i32, align 4
  %4 = alloca i32, align 4
  %5 = alloca i32, align 4
  %6 = alloca i32, align 4
  store i32 0, i32* %4, align 4
  store i32 0, i32* %5, align 4
  store i32 0, i32* %6, align 4
  %7 = call i32 (i8*, ...) @__isoc99_scanf(i8* getelementptr inbounds ([3 x i8], [3 x i8]* @.str, i64 0, i64 0), i32* %2)
  store i32 0, i32* %3, align 4
  br label %8

8:                                                ; preds = %43, %0
  %9 = load i32, i32* %3, align 4
  %10 = load i32, i32* %2, align 4
  %11 = icmp slt i32 %9, %10
  br i1 %11, label %12, label %46

12:                                               ; preds = %8
  %13 = load i32, i32* %3, align 4
  %14 = sext i32 %13 to i64
  %15 = getelementptr inbounds [100 x %struct.student], [100 x %struct.student]* %1, i64 0, i64 %14
  %16 = getelementptr inbounds %struct.student, %struct.student* %15, i32 0, i32 0
  %17 = getelementptr inbounds [20 x i8], [20 x i8]* %16, i64 0, i64 0
  %18 = load i32, i32* %3, align 4
  %19 = sext i32 %18 to i64
  %20 = getelementptr inbounds [100 x %struct.student], [100 x %struct.student]* %1, i64 0, i64 %19
  %21 = getelementptr inbounds %struct.student, %struct.student* %20, i32 0, i32 1
  %22 = load i32, i32* %3, align 4
  %23 = sext i32 %22 to i64
  %24 = getelementptr inbounds [100 x %struct.student], [100 x %struct.student]* %1, i64 0, i64 %23
  %25 = getelementptr inbounds %struct.student, %struct.student* %24, i32 0, i32 2
  %26 = load i32, i32* %3, align 4
  %27 = sext i32 %26 to i64
  %28 = getelementptr inbounds [100 x %struct.student], [100 x %struct.student]* %1, i64 0, i64 %27
  %29 = getelementptr inbounds %struct.student, %struct.student* %28, i32 0, i32 3
  %30 = load i32, i32* %3, align 4
  %31 = sext i32 %30 to i64
  %32 = getelementptr inbounds [100 x %struct.student], [100 x %struct.student]* %1, i64 0, i64 %31
  %33 = getelementptr inbounds %struct.student, %struct.student* %32, i32 0, i32 4
  %34 = load i32, i32* %3, align 4
  %35 = sext i32 %34 to i64
  %36 = getelementptr inbounds [100 x %struct.student], [100 x %struct.student]* %1, i64 0, i64 %35
  %37 = getelementptr inbounds %struct.student, %struct.student* %36, i32 0, i32 5
  %38 = call i32 (i8*, ...) @__isoc99_scanf(i8* getelementptr inbounds ([18 x i8], [18 x i8]* @.str.1, i64 0, i64 0), i8* %17, i32* %21, i32* %25, i8* %29, i8* %33, i32* %37)
  %39 = load i32, i32* %3, align 4
  %40 = sext i32 %39 to i64
  %41 = getelementptr inbounds [100 x %struct.student], [100 x %struct.student]* %1, i64 0, i64 %40
  %42 = getelementptr inbounds %struct.student, %struct.student* %41, i32 0, i32 6
  store i32 0, i32* %42, align 4
  br label %43

43:                                               ; preds = %12
  %44 = load i32, i32* %3, align 4
  %45 = add nsw i32 %44, 1
  store i32 %45, i32* %3, align 4
  br label %8

46:                                               ; preds = %8
  store i32 0, i32* %3, align 4
  br label %47

47:                                               ; preds = %172, %46
  %48 = load i32, i32* %3, align 4
  %49 = load i32, i32* %2, align 4
  %50 = icmp slt i32 %48, %49
  br i1 %50, label %51, label %175

51:                                               ; preds = %47
  %52 = load i32, i32* %3, align 4
  %53 = sext i32 %52 to i64
  %54 = getelementptr inbounds [100 x %struct.student], [100 x %struct.student]* %1, i64 0, i64 %53
  %55 = getelementptr inbounds %struct.student, %struct.student* %54, i32 0, i32 1
  %56 = load i32, i32* %55, align 4
  %57 = icmp sgt i32 %56, 80
  br i1 %57, label %58, label %76

58:                                               ; preds = %51
  %59 = load i32, i32* %3, align 4
  %60 = sext i32 %59 to i64
  %61 = getelementptr inbounds [100 x %struct.student], [100 x %struct.student]* %1, i64 0, i64 %60
  %62 = getelementptr inbounds %struct.student, %struct.student* %61, i32 0, i32 5
  %63 = load i32, i32* %62, align 8
  %64 = icmp sge i32 %63, 1
  br i1 %64, label %65, label %76

65:                                               ; preds = %58
  %66 = load i32, i32* %3, align 4
  %67 = sext i32 %66 to i64
  %68 = getelementptr inbounds [100 x %struct.student], [100 x %struct.student]* %1, i64 0, i64 %67
  %69 = getelementptr inbounds %struct.student, %struct.student* %68, i32 0, i32 6
  %70 = load i32, i32* %69, align 4
  %71 = add nsw i32 %70, 8000
  %72 = load i32, i32* %3, align 4
  %73 = sext i32 %72 to i64
  %74 = getelementptr inbounds [100 x %struct.student], [100 x %struct.student]* %1, i64 0, i64 %73
  %75 = getelementptr inbounds %struct.student, %struct.student* %74, i32 0, i32 6
  store i32 %71, i32* %75, align 4
  br label %76

76:                                               ; preds = %65, %58, %51
  %77 = load i32, i32* %3, align 4
  %78 = sext i32 %77 to i64
  %79 = getelementptr inbounds [100 x %struct.student], [100 x %struct.student]* %1, i64 0, i64 %78
  %80 = getelementptr inbounds %struct.student, %struct.student* %79, i32 0, i32 1
  %81 = load i32, i32* %80, align 4
  %82 = icmp sgt i32 %81, 85
  br i1 %82, label %83, label %101

83:                                               ; preds = %76
  %84 = load i32, i32* %3, align 4
  %85 = sext i32 %84 to i64
  %86 = getelementptr inbounds [100 x %struct.student], [100 x %struct.student]* %1, i64 0, i64 %85
  %87 = getelementptr inbounds %struct.student, %struct.student* %86, i32 0, i32 2
  %88 = load i32, i32* %87, align 8
  %89 = icmp sgt i32 %88, 80
  br i1 %89, label %90, label %101

90:                                               ; preds = %83
  %91 = load i32, i32* %3, align 4
  %92 = sext i32 %91 to i64
  %93 = getelementptr inbounds [100 x %struct.student], [100 x %struct.student]* %1, i64 0, i64 %92
  %94 = getelementptr inbounds %struct.student, %struct.student* %93, i32 0, i32 6
  %95 = load i32, i32* %94, align 4
  %96 = add nsw i32 %95, 4000
  %97 = load i32, i32* %3, align 4
  %98 = sext i32 %97 to i64
  %99 = getelementptr inbounds [100 x %struct.student], [100 x %struct.student]* %1, i64 0, i64 %98
  %100 = getelementptr inbounds %struct.student, %struct.student* %99, i32 0, i32 6
  store i32 %96, i32* %100, align 4
  br label %101

101:                                              ; preds = %90, %83, %76
  %102 = load i32, i32* %3, align 4
  %103 = sext i32 %102 to i64
  %104 = getelementptr inbounds [100 x %struct.student], [100 x %struct.student]* %1, i64 0, i64 %103
  %105 = getelementptr inbounds %struct.student, %struct.student* %104, i32 0, i32 1
  %106 = load i32, i32* %105, align 4
  %107 = icmp sgt i32 %106, 90
  br i1 %107, label %108, label %119

108:                                              ; preds = %101
  %109 = load i32, i32* %3, align 4
  %110 = sext i32 %109 to i64
  %111 = getelementptr inbounds [100 x %struct.student], [100 x %struct.student]* %1, i64 0, i64 %110
  %112 = getelementptr inbounds %struct.student, %struct.student* %111, i32 0, i32 6
  %113 = load i32, i32* %112, align 4
  %114 = add nsw i32 %113, 2000
  %115 = load i32, i32* %3, align 4
  %116 = sext i32 %115 to i64
  %117 = getelementptr inbounds [100 x %struct.student], [100 x %struct.student]* %1, i64 0, i64 %116
  %118 = getelementptr inbounds %struct.student, %struct.student* %117, i32 0, i32 6
  store i32 %114, i32* %118, align 4
  br label %119

119:                                              ; preds = %108, %101
  %120 = load i32, i32* %3, align 4
  %121 = sext i32 %120 to i64
  %122 = getelementptr inbounds [100 x %struct.student], [100 x %struct.student]* %1, i64 0, i64 %121
  %123 = getelementptr inbounds %struct.student, %struct.student* %122, i32 0, i32 1
  %124 = load i32, i32* %123, align 4
  %125 = icmp sgt i32 %124, 85
  br i1 %125, label %126, label %145

126:                                              ; preds = %119
  %127 = load i32, i32* %3, align 4
  %128 = sext i32 %127 to i64
  %129 = getelementptr inbounds [100 x %struct.student], [100 x %struct.student]* %1, i64 0, i64 %128
  %130 = getelementptr inbounds %struct.student, %struct.student* %129, i32 0, i32 4
  %131 = load i8, i8* %130, align 1
  %132 = sext i8 %131 to i32
  %133 = icmp eq i32 %132, 89
  br i1 %133, label %134, label %145

134:                                              ; preds = %126
  %135 = load i32, i32* %3, align 4
  %136 = sext i32 %135 to i64
  %137 = getelementptr inbounds [100 x %struct.student], [100 x %struct.student]* %1, i64 0, i64 %136
  %138 = getelementptr inbounds %struct.student, %struct.student* %137, i32 0, i32 6
  %139 = load i32, i32* %138, align 4
  %140 = add nsw i32 %139, 1000
  %141 = load i32, i32* %3, align 4
  %142 = sext i32 %141 to i64
  %143 = getelementptr inbounds [100 x %struct.student], [100 x %struct.student]* %1, i64 0, i64 %142
  %144 = getelementptr inbounds %struct.student, %struct.student* %143, i32 0, i32 6
  store i32 %140, i32* %144, align 4
  br label %145

145:                                              ; preds = %134, %126, %119
  %146 = load i32, i32* %3, align 4
  %147 = sext i32 %146 to i64
  %148 = getelementptr inbounds [100 x %struct.student], [100 x %struct.student]* %1, i64 0, i64 %147
  %149 = getelementptr inbounds %struct.student, %struct.student* %148, i32 0, i32 2
  %150 = load i32, i32* %149, align 8
  %151 = icmp sgt i32 %150, 80
  br i1 %151, label %152, label %171

152:                                              ; preds = %145
  %153 = load i32, i32* %3, align 4
  %154 = sext i32 %153 to i64
  %155 = getelementptr inbounds [100 x %struct.student], [100 x %struct.student]* %1, i64 0, i64 %154
  %156 = getelementptr inbounds %struct.student, %struct.student* %155, i32 0, i32 3
  %157 = load i8, i8* %156, align 4
  %158 = sext i8 %157 to i32
  %159 = icmp eq i32 %158, 89
  br i1 %159, label %160, label %171

160:                                              ; preds = %152
  %161 = load i32, i32* %3, align 4
  %162 = sext i32 %161 to i64
  %163 = getelementptr inbounds [100 x %struct.student], [100 x %struct.student]* %1, i64 0, i64 %162
  %164 = getelementptr inbounds %struct.student, %struct.student* %163, i32 0, i32 6
  %165 = load i32, i32* %164, align 4
  %166 = add nsw i32 %165, 850
  %167 = load i32, i32* %3, align 4
  %168 = sext i32 %167 to i64
  %169 = getelementptr inbounds [100 x %struct.student], [100 x %struct.student]* %1, i64 0, i64 %168
  %170 = getelementptr inbounds %struct.student, %struct.student* %169, i32 0, i32 6
  store i32 %166, i32* %170, align 4
  br label %171

171:                                              ; preds = %160, %152, %145
  br label %172

172:                                              ; preds = %171
  %173 = load i32, i32* %3, align 4
  %174 = add nsw i32 %173, 1
  store i32 %174, i32* %3, align 4
  br label %47

175:                                              ; preds = %47
  store i32 0, i32* %3, align 4
  br label %176

176:                                              ; preds = %196, %175
  %177 = load i32, i32* %3, align 4
  %178 = load i32, i32* %2, align 4
  %179 = icmp slt i32 %177, %178
  br i1 %179, label %180, label %199

180:                                              ; preds = %176
  %181 = load i32, i32* %3, align 4
  %182 = sext i32 %181 to i64
  %183 = getelementptr inbounds [100 x %struct.student], [100 x %struct.student]* %1, i64 0, i64 %182
  %184 = getelementptr inbounds %struct.student, %struct.student* %183, i32 0, i32 6
  %185 = load i32, i32* %184, align 4
  %186 = load i32, i32* %6, align 4
  %187 = icmp sgt i32 %185, %186
  br i1 %187, label %188, label %195

188:                                              ; preds = %180
  %189 = load i32, i32* %3, align 4
  %190 = sext i32 %189 to i64
  %191 = getelementptr inbounds [100 x %struct.student], [100 x %struct.student]* %1, i64 0, i64 %190
  %192 = getelementptr inbounds %struct.student, %struct.student* %191, i32 0, i32 6
  %193 = load i32, i32* %192, align 4
  store i32 %193, i32* %6, align 4
  %194 = load i32, i32* %3, align 4
  store i32 %194, i32* %4, align 4
  br label %195

195:                                              ; preds = %188, %180
  br label %196

196:                                              ; preds = %195
  %197 = load i32, i32* %3, align 4
  %198 = add nsw i32 %197, 1
  store i32 %198, i32* %3, align 4
  br label %176

199:                                              ; preds = %176
  store i32 0, i32* %3, align 4
  br label %200

200:                                              ; preds = %212, %199
  %201 = load i32, i32* %3, align 4
  %202 = load i32, i32* %2, align 4
  %203 = icmp slt i32 %201, %202
  br i1 %203, label %204, label %215

204:                                              ; preds = %200
  %205 = load i32, i32* %5, align 4
  %206 = load i32, i32* %3, align 4
  %207 = sext i32 %206 to i64
  %208 = getelementptr inbounds [100 x %struct.student], [100 x %struct.student]* %1, i64 0, i64 %207
  %209 = getelementptr inbounds %struct.student, %struct.student* %208, i32 0, i32 6
  %210 = load i32, i32* %209, align 4
  %211 = add nsw i32 %205, %210
  store i32 %211, i32* %5, align 4
  br label %212

212:                                              ; preds = %204
  %213 = load i32, i32* %3, align 4
  %214 = add nsw i32 %213, 1
  store i32 %214, i32* %3, align 4
  br label %200

215:                                              ; preds = %200
  %216 = load i32, i32* %4, align 4
  %217 = sext i32 %216 to i64
  %218 = getelementptr inbounds [100 x %struct.student], [100 x %struct.student]* %1, i64 0, i64 %217
  %219 = getelementptr inbounds %struct.student, %struct.student* %218, i32 0, i32 0
  %220 = getelementptr inbounds [20 x i8], [20 x i8]* %219, i64 0, i64 0
  %221 = load i32, i32* %6, align 4
  %222 = load i32, i32* %5, align 4
  %223 = call i32 (i8*, ...) @printf(i8* getelementptr inbounds ([10 x i8], [10 x i8]* @.str.2, i64 0, i64 0), i8* %220, i32 %221, i32 %222)
  ret void
}